target datalayout = "e-m:e-p270:32:32-p271:32:32-p272:64:64-i64:64-i128:128-f80:128-n8:16:32:64-S128"
target triple = "x86_64-pc-linux-gnu"

%struct.stat = type { i64, i64, i64, i32, i32, i32, i32, i64, i64, i64, i64, %struct.timespec, %struct.timespec, %struct.timespec, [3 x i64] }
%struct.timespec = type { i64, i64 }

@.str.1 = private unnamed_addr constant [34 x i8] c"../openssl/crypto/rand/randfile.c\00", align 1
@.str.2 = private unnamed_addr constant [12 x i8] c"Filename=%s\00", align 1
@__func__.RAND_write_file = private unnamed_addr constant [16 x i8] c"RAND_write_file\00", align 1
@.str.3 = private unnamed_addr constant [3 x i8] c"wb\00", align 1

; Function Attrs: nounwind uwtable
define i32 @RAND_write_file(ptr noundef %0) #0 {
  %2 = alloca i32, align 4
  %3 = alloca ptr, align 8
  %4 = alloca [1024 x i8], align 16
  %5 = alloca i32, align 4
  %6 = alloca ptr, align 8
  %7 = alloca %struct.stat, align 8
  %8 = alloca i32, align 4
  %9 = alloca i32, align 4
  store ptr %0, ptr %3, align 8, !tbaa !3
  call void @llvm.lifetime.start.p0(i64 1024, ptr %4) #6
  call void @llvm.lifetime.start.p0(i64 4, ptr %5) #6
  store i32 -1, ptr %5, align 4, !tbaa !10
  call void @llvm.lifetime.start.p0(i64 8, ptr %6) #6
  store ptr null, ptr %6, align 8, !tbaa !12
  call void @llvm.lifetime.start.p0(i64 144, ptr %7) #6
  %10 = load ptr, ptr %3, align 8, !tbaa !3
  %11 = call i32 @stat(ptr noundef %10, ptr noundef %7) #6
  %12 = icmp sge i32 %11, 0
  br i1 %12, label %13, label %20

13:                                               ; preds = %1
  %14 = getelementptr inbounds nuw %struct.stat, ptr %7, i32 0, i32 3
  %15 = load i32, ptr %14, align 8, !tbaa !14
  %16 = and i32 %15, 61440
  %17 = icmp eq i32 %16, 32768
  br i1 %17, label %20, label %18

18:                                               ; preds = %13
  call void @ERR_new()
  call void @ERR_set_debug(ptr noundef @.str.1, i32 noundef 191, ptr noundef @__func__.RAND_write_file)
  %19 = load ptr, ptr %3, align 8, !tbaa !3
  call void (i32, i32, ptr, ...) @ERR_set_error(i32 noundef 36, i32 noundef 122, ptr noundef @.str.2, ptr noundef %19)
  store i32 -1, ptr %2, align 4
  store i32 1, ptr %8, align 4
  br label %65

20:                                               ; preds = %13, %1
  %21 = getelementptr inbounds [1024 x i8], ptr %4, i64 0, i64 0
  %22 = call i32 @RAND_priv_bytes(ptr noundef %21, i32 noundef 1024)
  %23 = icmp ne i32 %22, 1
  br i1 %23, label %24, label %25

24:                                               ; preds = %20
  store i32 -1, ptr %2, align 4
  store i32 1, ptr %8, align 4
  br label %65

25:                                               ; preds = %20
  call void @llvm.lifetime.start.p0(i64 4, ptr %9) #6
  %26 = load ptr, ptr %3, align 8, !tbaa !3
  %27 = call i32 (ptr, i32, ...) @open(ptr noundef %26, i32 noundef 65, i32 noundef 384)
  store i32 %27, ptr %9, align 4, !tbaa !10
  %28 = load i32, ptr %9, align 4, !tbaa !10
  %29 = icmp ne i32 %28, -1
  br i1 %29, label %30, label %40

30:                                               ; preds = %25
  %31 = load i32, ptr %9, align 4, !tbaa !10
  %32 = call noalias ptr @fdopen(i32 noundef %31, ptr noundef @.str.3) #6
  store ptr %32, ptr %6, align 8, !tbaa !12
  %33 = load ptr, ptr %6, align 8, !tbaa !12
  %34 = icmp eq ptr %33, null
  br i1 %34, label %35, label %39

35:                                               ; preds = %30
  %36 = load i32, ptr %9, align 4, !tbaa !10
  %37 = call i32 @close(i32 noundef %36)
  call void @ERR_new()
  call void @ERR_set_debug(ptr noundef @.str.1, i32 noundef 217, ptr noundef @__func__.RAND_write_file)
  %38 = load ptr, ptr %3, align 8, !tbaa !3
  call void (i32, i32, ptr, ...) @ERR_set_error(i32 noundef 36, i32 noundef 121, ptr noundef @.str.2, ptr noundef %38)
  store i32 -1, ptr %2, align 4
  store i32 1, ptr %8, align 4
  br label %41

39:                                               ; preds = %30
  br label %40

40:                                               ; preds = %39, %25
  store i32 0, ptr %8, align 4
  br label %41

41:                                               ; preds = %40, %35
  call void @llvm.lifetime.end.p0(i64 4, ptr %9) #6
  %42 = load i32, ptr %8, align 4
  switch i32 %42, label %65 [
    i32 0, label %43
  ]

43:                                               ; preds = %41
  %44 = load ptr, ptr %6, align 8, !tbaa !12
  %45 = icmp eq ptr %44, null
  br i1 %45, label %46, label %49

46:                                               ; preds = %43
  %47 = load ptr, ptr %3, align 8, !tbaa !3
  %48 = call ptr @openssl_fopen(ptr noundef %47, ptr noundef @.str.3)
  store ptr %48, ptr %6, align 8, !tbaa !12
  br label %49

49:                                               ; preds = %46, %43
  %50 = load ptr, ptr %6, align 8, !tbaa !12
  %51 = icmp eq ptr %50, null
  br i1 %51, label %52, label %54

52:                                               ; preds = %49
  call void @ERR_new()
  call void @ERR_set_debug(ptr noundef @.str.1, i32 noundef 249, ptr noundef @__func__.RAND_write_file)
  %53 = load ptr, ptr %3, align 8, !tbaa !3
  call void (i32, i32, ptr, ...) @ERR_set_error(i32 noundef 36, i32 noundef 121, ptr noundef @.str.2, ptr noundef %53)
  store i32 -1, ptr %2, align 4
  store i32 1, ptr %8, align 4
  br label %65

54:                                               ; preds = %49
  %55 = load ptr, ptr %3, align 8, !tbaa !3
  %56 = call i32 @chmod(ptr noundef %55, i32 noundef 384) #6
  %57 = getelementptr inbounds [1024 x i8], ptr %4, i64 0, i64 0
  %58 = load ptr, ptr %6, align 8, !tbaa !12
  %59 = call i64 @fwrite(ptr noundef %57, i64 noundef 1, i64 noundef 1024, ptr noundef %58)
  %60 = trunc i64 %59 to i32
  store i32 %60, ptr %5, align 4, !tbaa !10
  %61 = load ptr, ptr %6, align 8, !tbaa !12
  %62 = call i32 @fclose(ptr noundef %61)
  %63 = getelementptr inbounds [1024 x i8], ptr %4, i64 0, i64 0
  call void @OPENSSL_cleanse(ptr noundef %63, i64 noundef 1024)
  %64 = load i32, ptr %5, align 4, !tbaa !10
  store i32 %64, ptr %2, align 4
  store i32 1, ptr %8, align 4
  br label %65

65:                                               ; preds = %54, %52, %41, %24, %18
  call void @llvm.lifetime.end.p0(i64 144, ptr %7) #6
  call void @llvm.lifetime.end.p0(i64 8, ptr %6) #6
  call void @llvm.lifetime.end.p0(i64 4, ptr %5) #6
  call void @llvm.lifetime.end.p0(i64 1024, ptr %4) #6
  %66 = load i32, ptr %2, align 4
  ret i32 %66
}